; Function Attrs: nounwind uwtable
define dso_local noundef i64 @char_bpchar(ptr noundef readonly captures(none) %0) local_unnamed_addr #0 {
  %2 = getelementptr inbounds nuw i8, ptr %0, i64 32
  %3 = load i64, ptr %2, align 8
  %4 = trunc i64 %3 to i8
  %5 = tail call ptr @palloc(i64 noundef 5) #13
  store i32 20, ptr %5, align 4
  %6 = getelementptr inbounds nuw i8, ptr %5, i64 4
  store i8 %4, ptr %6, align 4
  %7 = ptrtoint ptr %5 to i64
  ret i64 %7
}